target datalayout = "e-m:e-p270:32:32-p271:32:32-p272:64:64-i64:64-i128:128-f80:128-n8:16:32:64-S128"
target triple = "x86_64-pc-linux-gnu"

%struct.AVFilterContext = type { ptr, ptr, ptr, ptr, ptr, i32, ptr, ptr, i32, ptr, ptr, i32, i32, ptr, ptr, ptr, ptr, i32, ptr, i32, i32 }
%struct.FadeContext = type { ptr, i32, i32, i32, i32, i32, i32, i32, i32, i32, i32, i32, i8, i8, [4 x i8], i32, i32, i64, i64, i64, i64, i32, [4 x i8], i32, ptr, ptr, ptr }
%struct.AVChannelLayout = type { i32, i32, %union.anon.1, ptr }
%union.anon.1 = type { i64 }
%struct.AVRational = type { i32, i32 }
%struct.AVFrame = type { [8 x ptr], [8 x i32], ptr, i32, i32, i32, i32, i32, %struct.AVRational, i64, i64, %struct.AVRational, i32, ptr, i32, i32, [8 x ptr], ptr, i32, ptr, i32, i32, i32, i32, i32, i32, i32, i64, ptr, i32, ptr, ptr, i64, i64, i64, i64, ptr, %struct.AVChannelLayout, i64 }

; Function Attrs: nounwind uwtable
define internal i32 @filter_slice_luma(ptr noundef %0, ptr noundef %1, i32 noundef %2, i32 noundef %3) #1 {
  %5 = alloca ptr, align 8
  %6 = alloca ptr, align 8
  %7 = alloca i32, align 4
  %8 = alloca i32, align 4
  %9 = alloca ptr, align 8
  %10 = alloca ptr, align 8
  %11 = alloca i32, align 4
  %12 = alloca i32, align 4
  %13 = alloca i32, align 4
  %14 = alloca i32, align 4
  %15 = alloca i32, align 4
  %16 = alloca ptr, align 8
  store ptr %0, ptr %5, align 8, !tbaa !4
  store ptr %1, ptr %6, align 8, !tbaa !37
  store i32 %2, ptr %7, align 4, !tbaa !88
  store i32 %3, ptr %8, align 4, !tbaa !88
  call void @llvm.lifetime.start.p0(i64 8, ptr %9) #11
  %17 = load ptr, ptr %5, align 8, !tbaa !4
  %18 = getelementptr inbounds nuw %struct.AVFilterContext, ptr %17, i32 0, i32 9
  %19 = load ptr, ptr %18, align 8, !tbaa !9
  store ptr %19, ptr %9, align 8, !tbaa !22
  call void @llvm.lifetime.start.p0(i64 8, ptr %10) #11
  %20 = load ptr, ptr %6, align 8, !tbaa !37
  store ptr %20, ptr %10, align 8, !tbaa !40
  call void @llvm.lifetime.start.p0(i64 4, ptr %11) #11
  %21 = load ptr, ptr %10, align 8, !tbaa !40
  %22 = getelementptr inbounds nuw %struct.AVFrame, ptr %21, i32 0, i32 4
  %23 = load i32, ptr %22, align 4, !tbaa !63
  %24 = load i32, ptr %7, align 4, !tbaa !88
  %25 = mul nsw i32 %23, %24
  %26 = load i32, ptr %8, align 4, !tbaa !88
  %27 = sdiv i32 %25, %26
  store i32 %27, ptr %11, align 4, !tbaa !88
  call void @llvm.lifetime.start.p0(i64 4, ptr %12) #11
  %28 = load ptr, ptr %10, align 8, !tbaa !40
  %29 = getelementptr inbounds nuw %struct.AVFrame, ptr %28, i32 0, i32 4
  %30 = load i32, ptr %29, align 4, !tbaa !63
  %31 = load i32, ptr %7, align 4, !tbaa !88
  %32 = add nsw i32 %31, 1
  %33 = mul nsw i32 %30, %32
  %34 = load i32, ptr %8, align 4, !tbaa !88
  %35 = sdiv i32 %33, %34
  store i32 %35, ptr %12, align 4, !tbaa !88
  call void @llvm.lifetime.start.p0(i64 4, ptr %13) #11
  call void @llvm.lifetime.start.p0(i64 4, ptr %14) #11
  call void @llvm.lifetime.start.p0(i64 4, ptr %15) #11
  store i32 0, ptr %15, align 4, !tbaa !88
  br label %36

36:                                               ; preds = %117, %4
  %37 = load i32, ptr %15, align 4, !tbaa !88
  %38 = load ptr, ptr %9, align 8, !tbaa !22
  %39 = getelementptr inbounds nuw %struct.FadeContext, ptr %38, i32 0, i32 16
  %40 = load i32, ptr %39, align 8, !tbaa !82
  %41 = icmp ne i32 %40, 0
  br i1 %41, label %42, label %48

42:                                               ; preds = %36
  %43 = load ptr, ptr %9, align 8, !tbaa !22
  %44 = getelementptr inbounds nuw %struct.FadeContext, ptr %43, i32 0, i32 12
  %45 = load i8, ptr %44, align 4, !tbaa !64
  %46 = zext i8 %45 to i32
  %47 = icmp ne i32 %46, 0
  br label %48

48:                                               ; preds = %42, %36
  %49 = phi i1 [ false, %36 ], [ %47, %42 ]
  %50 = zext i1 %49 to i32
  %51 = mul nsw i32 2, %50
  %52 = add nsw i32 1, %51
  %53 = icmp slt i32 %37, %52
  br i1 %53, label %55, label %54

54:                                               ; preds = %48
  call void @llvm.lifetime.end.p0(i64 4, ptr %15) #11
  br label %120

55:                                               ; preds = %48
  %56 = load i32, ptr %11, align 4, !tbaa !88
  store i32 %56, ptr %13, align 4, !tbaa !88
  br label %57

57:                                               ; preds = %113, %55
  %58 = load i32, ptr %13, align 4, !tbaa !88
  %59 = load i32, ptr %12, align 4, !tbaa !88
  %60 = icmp slt i32 %58, %59
  br i1 %60, label %61, label %116

61:                                               ; preds = %57
  call void @llvm.lifetime.start.p0(i64 8, ptr %16) #11
  %62 = load ptr, ptr %10, align 8, !tbaa !40
  %63 = getelementptr inbounds nuw %struct.AVFrame, ptr %62, i32 0, i32 0
  %64 = load i32, ptr %15, align 4, !tbaa !88
  %65 = sext i32 %64 to i64
  %66 = getelementptr inbounds [8 x ptr], ptr %63, i64 0, i64 %65
  %67 = load ptr, ptr %66, align 8, !tbaa !66
  %68 = load i32, ptr %13, align 4, !tbaa !88
  %69 = load ptr, ptr %10, align 8, !tbaa !40
  %70 = getelementptr inbounds nuw %struct.AVFrame, ptr %69, i32 0, i32 1
  %71 = load i32, ptr %15, align 4, !tbaa !88
  %72 = sext i32 %71 to i64
  %73 = getelementptr inbounds [8 x i32], ptr %70, i64 0, i64 %72
  %74 = load i32, ptr %73, align 4, !tbaa !88
  %75 = mul nsw i32 %68, %74
  %76 = sext i32 %75 to i64
  %77 = getelementptr inbounds i8, ptr %67, i64 %76
  store ptr %77, ptr %16, align 8, !tbaa !66
  store i32 0, ptr %14, align 4, !tbaa !88
  br label %78

78:                                               ; preds = %109, %61
  %79 = load i32, ptr %14, align 4, !tbaa !88
  %80 = load ptr, ptr %10, align 8, !tbaa !40
  %81 = getelementptr inbounds nuw %struct.AVFrame, ptr %80, i32 0, i32 3
  %82 = load i32, ptr %81, align 8, !tbaa !89
  %83 = load ptr, ptr %9, align 8, !tbaa !22
  %84 = getelementptr inbounds nuw %struct.FadeContext, ptr %83, i32 0, i32 8
  %85 = load i32, ptr %84, align 4, !tbaa !81
  %86 = mul nsw i32 %82, %85
  %87 = icmp slt i32 %79, %86
  br i1 %87, label %88, label %112

88:                                               ; preds = %78
  %89 = load ptr, ptr %16, align 8, !tbaa !66
  %90 = load i8, ptr %89, align 1, !tbaa !90
  %91 = zext i8 %90 to i32
  %92 = load ptr, ptr %9, align 8, !tbaa !22
  %93 = getelementptr inbounds nuw %struct.FadeContext, ptr %92, i32 0, i32 10
  %94 = load i32, ptr %93, align 4, !tbaa !86
  %95 = sub i32 %91, %94
  %96 = load ptr, ptr %9, align 8, !tbaa !22
  %97 = getelementptr inbounds nuw %struct.FadeContext, ptr %96, i32 0, i32 2
  %98 = load i32, ptr %97, align 4, !tbaa !52
  %99 = mul i32 %95, %98
  %100 = load ptr, ptr %9, align 8, !tbaa !22
  %101 = getelementptr inbounds nuw %struct.FadeContext, ptr %100, i32 0, i32 11
  %102 = load i32, ptr %101, align 8, !tbaa !87
  %103 = add i32 %99, %102
  %104 = lshr i32 %103, 16
  %105 = trunc i32 %104 to i8
  %106 = load ptr, ptr %16, align 8, !tbaa !66
  store i8 %105, ptr %106, align 1, !tbaa !90
  %107 = load ptr, ptr %16, align 8, !tbaa !66
  %108 = getelementptr inbounds nuw i8, ptr %107, i32 1
  store ptr %108, ptr %16, align 8, !tbaa !66
  br label %109

109:                                              ; preds = %88
  %110 = load i32, ptr %14, align 4, !tbaa !88
  %111 = add nsw i32 %110, 1
  store i32 %111, ptr %14, align 4, !tbaa !88
  br label %78, !llvm.loop !96

112:                                              ; preds = %78
  call void @llvm.lifetime.end.p0(i64 8, ptr %16) #11
  br label %113

113:                                              ; preds = %112
  %114 = load i32, ptr %13, align 4, !tbaa !88
  %115 = add nsw i32 %114, 1
  store i32 %115, ptr %13, align 4, !tbaa !88
  br label %57, !llvm.loop !97

116:                                              ; preds = %57
  br label %117

117:                                              ; preds = %116
  %118 = load i32, ptr %15, align 4, !tbaa !88
  %119 = add nsw i32 %118, 1
  store i32 %119, ptr %15, align 4, !tbaa !88
  br label %36, !llvm.loop !98

120:                                              ; preds = %54
  call void @llvm.lifetime.end.p0(i64 4, ptr %14) #11
  call void @llvm.lifetime.end.p0(i64 4, ptr %13) #11
  call void @llvm.lifetime.end.p0(i64 4, ptr %12) #11
  call void @llvm.lifetime.end.p0(i64 4, ptr %11) #11
  call void @llvm.lifetime.end.p0(i64 8, ptr %10) #11
  call void @llvm.lifetime.end.p0(i64 8, ptr %9) #11
  ret i32 0
}