; Function Attrs: nofree norecurse nosync nounwind memory(readwrite, inaccessiblemem: none) uwtable
define internal noundef i32 @filter_slice_luma(ptr noundef readonly captures(none) %0, ptr noundef readonly captures(none) %1, i32 noundef %2, i32 noundef %3) #6 {
  %5 = getelementptr inbounds nuw i8, ptr %0, i64 72
  %6 = load ptr, ptr %5, align 8, !tbaa !4
  %7 = getelementptr inbounds nuw i8, ptr %1, i64 108
  %8 = load i32, ptr %7, align 4, !tbaa !53
  %9 = mul nsw i32 %8, %2
  %10 = sdiv i32 %9, %3
  %11 = add nsw i32 %2, 1
  %12 = mul nsw i32 %8, %11
  %13 = sdiv i32 %12, %3
  %14 = getelementptr inbounds nuw i8, ptr %6, i64 64
  %15 = icmp slt i32 %10, %13
  %16 = getelementptr inbounds nuw i8, ptr %6, i64 52
  %17 = getelementptr inbounds nuw i8, ptr %1, i64 64
  %18 = getelementptr inbounds nuw i8, ptr %1, i64 104
  %19 = getelementptr inbounds nuw i8, ptr %6, i64 36
  %20 = getelementptr inbounds nuw i8, ptr %6, i64 44
  %21 = getelementptr inbounds nuw i8, ptr %6, i64 12
  %22 = getelementptr inbounds nuw i8, ptr %6, i64 48
  br i1 %15, label %.split.us, label %.split40.us

.split.us:                                        ; preds = %4, %._crit_edge38.us
  %indvars.iv = phi i64 [ %indvars.iv.next, %._crit_edge38.us ], [ 0, %4 ]
  %23 = load i32, ptr %14, align 8, !tbaa !70
  %.not.us = icmp eq i32 %23, 0
  br i1 %.not.us, label %27, label %24

24:                                               ; preds = %.split.us
  %25 = load i8, ptr %16, align 4, !tbaa !51
  %.not33.us = icmp eq i8 %25, 0
  %26 = select i1 %.not33.us, i64 1, i64 3
  br label %27

27:                                               ; preds = %24, %.split.us
  %28 = phi i64 [ 1, %.split.us ], [ %26, %24 ]
  %29 = icmp samesign ult i64 %indvars.iv, %28
  br i1 %29, label %.preheader.us, label %.split40.us

30:                                               ; preds = %.preheader.us, %._crit_edge.us
  %31 = phi i32 [ %.pre46, %.preheader.us ], [ %40, %._crit_edge.us ]
  %32 = phi i32 [ %.pre, %.preheader.us ], [ %41, %._crit_edge.us ]
  %.03236.us = phi i32 [ %10, %.preheader.us ], [ %42, %._crit_edge.us ]
  %33 = mul nsw i32 %31, %32
  %34 = icmp sgt i32 %33, 0
  br i1 %34, label %.lr.ph.us.preheader, label %._crit_edge.us

.lr.ph.us.preheader:                              ; preds = %30
  %35 = load ptr, ptr %59, align 8, !tbaa !54
  %36 = load i32, ptr %60, align 4, !tbaa !75
  %37 = mul nsw i32 %36, %.03236.us
  %38 = sext i32 %37 to i64
  %39 = getelementptr inbounds i8, ptr %35, i64 %38
  br label %.lr.ph.us

._crit_edge.us:                                   ; preds = %.lr.ph.us, %30
  %40 = phi i32 [ %31, %30 ], [ %56, %.lr.ph.us ]
  %41 = phi i32 [ %32, %30 ], [ %55, %.lr.ph.us ]
  %42 = add nsw i32 %.03236.us, 1
  %exitcond.not = icmp eq i32 %42, %13
  br i1 %exitcond.not, label %._crit_edge38.us, label %30, !llvm.loop !86

.lr.ph.us:                                        ; preds = %.lr.ph.us.preheader, %.lr.ph.us
  %.035.us = phi ptr [ %53, %.lr.ph.us ], [ %39, %.lr.ph.us.preheader ]
  %.03134.us = phi i32 [ %54, %.lr.ph.us ], [ 0, %.lr.ph.us.preheader ]
  %43 = load i8, ptr %.035.us, align 1, !tbaa !76
  %44 = zext i8 %43 to i32
  %45 = load i32, ptr %20, align 4, !tbaa !72
  %46 = sub i32 %44, %45
  %47 = load i32, ptr %21, align 4, !tbaa !40
  %48 = mul i32 %46, %47
  %49 = load i32, ptr %22, align 8, !tbaa !73
  %50 = add i32 %48, %49
  %51 = lshr i32 %50, 16
  %52 = trunc i32 %51 to i8
  store i8 %52, ptr %.035.us, align 1, !tbaa !76
  %53 = getelementptr inbounds nuw i8, ptr %.035.us, i64 1
  %54 = add nuw nsw i32 %.03134.us, 1
  %55 = load i32, ptr %18, align 8, !tbaa !74
  %56 = load i32, ptr %19, align 4, !tbaa !69
  %57 = mul nsw i32 %56, %55
  %58 = icmp slt i32 %54, %57
  br i1 %58, label %.lr.ph.us, label %._crit_edge.us, !llvm.loop !87

.preheader.us:                                    ; preds = %27
  %59 = getelementptr inbounds nuw [8 x ptr], ptr %1, i64 0, i64 %indvars.iv
  %60 = getelementptr inbounds nuw [8 x i32], ptr %17, i64 0, i64 %indvars.iv
  %.pre = load i32, ptr %18, align 8, !tbaa !74
  %.pre46 = load i32, ptr %19, align 4, !tbaa !69
  br label %30

._crit_edge38.us:                                 ; preds = %._crit_edge.us
  %indvars.iv.next = add nuw nsw i64 %indvars.iv, 1
  br label %.split.us, !llvm.loop !88

.split40.us:                                      ; preds = %27, %4
  ret i32 0
}